; Function Attrs: nounwind uwtable
define hidden void @_ZThn16_N4cvc58internal7CDProofD1Ev(ptr noundef %this) unnamed_addr #5 align 2 {
entry:
  %0 = getelementptr inbounds i8, ptr %this, i64 -16
  store ptr getelementptr inbounds ({ [6 x ptr], [8 x ptr] }, ptr @_ZTVN4cvc58internal7CDProofE, i64 0, i32 0, i64 2), ptr %0, align 8
  store ptr getelementptr inbounds ({ [6 x ptr], [8 x ptr] }, ptr @_ZTVN4cvc58internal7CDProofE, i64 0, i32 1, i64 2), ptr %this, align 8
  %d_name.i = getelementptr inbounds i8, ptr %this, i64 168
  tail call void @_ZNSt7__cxx1112basic_stringIcSt11char_traitsIcESaIcEED1Ev(ptr noundef nonnull align 8 dereferenceable(32) %d_name.i) #19
  %d_nodes.i = getelementptr inbounds i8, ptr %this, i64 56
  tail call void @_ZN4cvc57context9CDHashMapINS_8internal12NodeTemplateILb1EEESt10shared_ptrINS2_9ProofNodeEESt4hashIS4_EED2Ev(ptr noundef nonnull align 8 dereferenceable(112) %d_nodes.i) #19
  %d_context.i = getelementptr inbounds i8, ptr %this, i64 8
  tail call void @_ZN4cvc57context7ContextD1Ev(ptr noundef nonnull align 8 dereferenceable(48) %d_context.i) #19
  tail call void @_ZN4cvc58internal14ProofGeneratorD2Ev(ptr noundef nonnull align 8 dereferenceable(8) %this) #19
  ret void
}